; Function Attrs: nounwind uwtable
define ptr @l_Lake_buildFileAfterDepArray___rarg(ptr noundef %0, ptr noundef %1, ptr noundef %2, ptr noundef %3, i8 noundef zeroext %4, ptr noundef %5, ptr noundef %6, ptr noundef %7, ptr noundef %8, ptr noundef %9, ptr noundef %10) local_unnamed_addr #0 {
  %12 = load ptr, ptr @l_Lake_buildFileAfterDepList___rarg___closed__1, align 8, !tbaa !9
  %13 = tail call ptr @l_Lake_Job_collectArray___rarg(ptr noundef %1, ptr noundef %12) #5
  tail call void @lean_inc_heartbeat() #5
  %14 = tail call noalias ptr @mi_malloc_small(i64 noundef 56) #5
  %15 = icmp eq ptr %14, null
  br i1 %15, label %16, label %lean_alloc_closure.exit

16:                                               ; preds = %11
  tail call void @lean_internal_panic_out_of_memory() #6
  unreachable

lean_alloc_closure.exit:                          ; preds = %11
  %17 = zext i8 %4 to i64
  %18 = shl nuw nsw i64 %17, 1
  %19 = or disjoint i64 %18, 1
  %20 = inttoptr i64 %19 to ptr
  %21 = getelementptr inbounds nuw i8, ptr %14, i64 4
  store i32 1, ptr %14, align 4, !tbaa !4
  store i32 -184549320, ptr %21, align 4
  %22 = getelementptr inbounds nuw i8, ptr %14, i64 8
  store ptr @l_Lake_buildFileAfterDep___rarg___lambda__1___boxed, ptr %22, align 8, !tbaa !9
  %23 = getelementptr inbounds nuw i8, ptr %14, i64 16
  store i16 11, ptr %23, align 8, !tbaa !15
  %24 = getelementptr inbounds nuw i8, ptr %14, i64 18
  store i16 4, ptr %24, align 2, !tbaa !15
  %25 = getelementptr inbounds nuw i8, ptr %14, i64 24
  store ptr %3, ptr %25, align 8, !tbaa !9
  %26 = getelementptr inbounds nuw i8, ptr %14, i64 32
  store ptr %2, ptr %26, align 8, !tbaa !9
  %27 = getelementptr inbounds nuw i8, ptr %14, i64 40
  store ptr %0, ptr %27, align 8, !tbaa !9
  %28 = getelementptr inbounds nuw i8, ptr %14, i64 48
  store ptr %20, ptr %28, align 8, !tbaa !9
  %29 = load ptr, ptr @l_Task_Priority_default, align 8, !tbaa !9
  %30 = tail call ptr @l_Lake_Job_mapM___at_Lake_buildFileAfterDepArray___spec__1___rarg(ptr noundef %13, ptr noundef nonnull %14, ptr noundef %29, i8 noundef zeroext 0, ptr noundef %5, ptr noundef %6, ptr noundef %7, ptr noundef %8, ptr noundef %9, ptr noundef %10)
  ret ptr %30
}